target datalayout = "e-m:e-p270:32:32-p271:32:32-p272:64:64-i64:64-i128:128-f80:128-n8:16:32:64-S128"
target triple = "x86_64-pc-linux-gnu"

%class.DFSProgramGenerator = type { %class.AbsProgramGenerator, i32, ptr, i64, i64, ptr }
%class.AbsProgramGenerator = type { ptr }

; Function Attrs: mustprogress nounwind uwtable
define dso_local void @_ZN19DFSProgramGeneratorD2Ev(ptr noundef nonnull align 8 dereferenceable(48) %0) unnamed_addr #5 align 2 personality ptr @__gxx_personality_v0 {
  %2 = alloca ptr, align 8
  store ptr %0, ptr %2, align 8
  %3 = load ptr, ptr %2, align 8
  store ptr getelementptr inbounds ({ [8 x ptr] }, ptr @_ZTV19DFSProgramGenerator, i32 0, i32 0, i32 2), ptr %3, align 8
  invoke void @_ZN12Finalization14doFinalizationEv()
          to label %4 unwind label %13

4:                                                ; preds = %1
  %5 = getelementptr inbounds %class.DFSProgramGenerator, ptr %3, i32 0, i32 5
  %6 = load ptr, ptr %5, align 8
  %7 = icmp eq ptr %6, null
  br i1 %7, label %12, label %8

8:                                                ; preds = %4
  %9 = load ptr, ptr %6, align 8
  %10 = getelementptr inbounds ptr, ptr %9, i64 1
  %11 = load ptr, ptr %10, align 8
  call void %11(ptr noundef nonnull align 8 dereferenceable(8) %6) #3
  br label %12

12:                                               ; preds = %8, %4
  call void @_ZN19AbsProgramGeneratorD2Ev(ptr noundef nonnull align 8 dereferenceable(8) %3) #3
  ret void

13:                                               ; preds = %1
  %14 = landingpad { ptr, i32 }
          catch ptr null
  %15 = extractvalue { ptr, i32 } %14, 0
  call void @__clang_call_terminate(ptr %15) #9
  unreachable
}